ccopy_reg
_reconstructor
p0
(cbanking.Bank
Bank
p1
c__builtin__
object
p2
Ntp3
Rp4
(dp5
S'account_number_counter'
p6
I1000003
sS'customers'
p7
(lp8
g0
(cbanking.Customer
Customer
p9
g2
Ntp10
Rp11
(dp12
S'first_name'
p13
S'Jason'
p14
sS'last_name'
p15
S'Keung'
p16
sS'account'
p17
g0
(cbanking.Checking
Checking
p18
g2
Ntp19
Rp20
(dp21
S'interest_rate'
p22
I0
sS'balance'
p23
F1000.0
sS'account_number'
p24
I1000000
sS'withdrawal_charge'
p25
F5.0
sbsS'ssn'
p26
S'123456789'
p27
sbag0
(g9
g2
Ntp28
Rp29
(dp30
g13
S'John'
p31
sg15
S'Smith'
p32
sg17
g0
(cbanking.Savings
Savings
p33
g2
Ntp34
Rp35
(dp36
g22
F0.02
sg23
F80.0
sg24
I1000001
sg25
F5.0
sbsg26
S'123121234'
p37
sbag0
(g9
g2
Ntp38
Rp39
(dp40
g13
S'George'
p41
sg15
S'Washington'
p42
sg17
g0
(g18
g2
Ntp43
Rp44
(dp45
g22
I0
sg23
F101.0
sg24
I1000002
sg25
F5.0
sbsg26
S'555555555'
p46
sbasb.